; Function Attrs: mustprogress uwtable
define hidden noundef nonnull align 8 dereferenceable(8) ptr @_ZlsRSoRK10ref_vectorI4sort11ast_managerE(ptr noundef nonnull returned align 8 dereferenceable(8) %out, ptr nocapture noundef nonnull readonly align 8 dereferenceable(16) %e) local_unnamed_addr #3 personality ptr @__gxx_personality_v0 {
entry:
  %ref.tmp = alloca %struct.mk_ismt2_pp, align 8
  %m_nodes.i = getelementptr inbounds i8, ptr %e, i64 8
  %0 = load ptr, ptr %m_nodes.i, align 8
  %cmp.i.i.i = icmp eq ptr %0, null
  br i1 %cmp.i.i.i, label %for.end, label %_ZNK15ref_vector_coreI4sort19ref_manager_wrapperIS0_11ast_managerEE3endEv.exit

_ZNK15ref_vector_coreI4sort19ref_manager_wrapperIS0_11ast_managerEE3endEv.exit: ; preds = %entry
  %arrayidx.i.i.i = getelementptr inbounds i8, ptr %0, i64 -4
  %1 = load i32, ptr %arrayidx.i.i.i, align 4
  %2 = zext i32 %1 to i64
  %add.ptr.i = getelementptr inbounds ptr, ptr %0, i64 %2
  %cmp.not8 = icmp eq i32 %1, 0
  br i1 %cmp.not8, label %for.end, label %for.body.lr.ph

for.body.lr.ph:                                   ; preds = %_ZNK15ref_vector_coreI4sort19ref_manager_wrapperIS0_11ast_managerEE3endEv.exit
  %m_manager.i = getelementptr inbounds i8, ptr %ref.tmp, i64 8
  %m_empty.i = getelementptr inbounds i8, ptr %ref.tmp, i64 16
  %m_params.i = getelementptr inbounds i8, ptr %ref.tmp, i64 24
  %m_indent.i = getelementptr inbounds i8, ptr %ref.tmp, i64 32
  br label %for.body

for.body:                                         ; preds = %for.body.lr.ph, %invoke.cont4
  %__begin1.09 = phi ptr [ %0, %for.body.lr.ph ], [ %incdec.ptr, %invoke.cont4 ]
  %3 = load ptr, ptr %__begin1.09, align 8
  %4 = load ptr, ptr %e, align 8
  store ptr %3, ptr %ref.tmp, align 8
  store ptr %4, ptr %m_manager.i, align 8
  store ptr null, ptr %m_empty.i, align 8
  store ptr %m_empty.i, ptr %m_params.i, align 8
  call void @llvm.memset.p0.i64(ptr noundef nonnull align 8 dereferenceable(16) %m_indent.i, i8 0, i64 16, i1 false)
  %call3 = invoke noundef nonnull align 8 dereferenceable(8) ptr @_ZlsRSoRK11mk_ismt2_pp(ptr noundef nonnull align 8 dereferenceable(8) %out, ptr noundef nonnull align 8 dereferenceable(48) %ref.tmp)
          to label %invoke.cont unwind label %lpad

invoke.cont:                                      ; preds = %for.body
  %call5 = invoke noundef nonnull align 8 dereferenceable(8) ptr @_ZStlsISt11char_traitsIcEERSt13basic_ostreamIcT_ES5_PKc(ptr noundef nonnull align 8 dereferenceable(8) %out, ptr noundef nonnull @.str.37)
          to label %invoke.cont4 unwind label %lpad

invoke.cont4:                                     ; preds = %invoke.cont
  call void @_ZN10params_refD1Ev(ptr noundef nonnull align 8 dereferenceable(8) %m_empty.i) #19
  %incdec.ptr = getelementptr inbounds i8, ptr %__begin1.09, i64 8
  %cmp.not = icmp eq ptr %incdec.ptr, %add.ptr.i
  br i1 %cmp.not, label %for.end, label %for.body

lpad:                                             ; preds = %invoke.cont, %for.body
  %5 = landingpad { ptr, i32 }
          cleanup
  call void @_ZN10params_refD1Ev(ptr noundef nonnull align 8 dereferenceable(8) %m_empty.i) #19
  resume { ptr, i32 } %5

for.end:                                          ; preds = %invoke.cont4, %entry, %_ZNK15ref_vector_coreI4sort19ref_manager_wrapperIS0_11ast_managerEE3endEv.exit
  ret ptr %out
}